(dp0
I5
(lp1
(iPrecedenceGraph
PrecedenceGraph
p2
(dp3
S'second_layer'
p4
c__builtin__
set
p5
((lp6
(iPrecedenceGraph
Node
p7
(dp8
S'longest_paths'
p9
NsS'task'
p10
ccopy_reg
_reconstructor
p11
(cTask
Task
p12
c__builtin__
object
p13
Ntp14
Rp15
(dp16
S'est'
p17
I198
sS'finish_time'
p18
I0
sS'start_time'
p19
I0
sS'eft'
p20
I236
sS'lft'
p21
I798
sS'lst'
p22
I760
sS'location'
p23
(I77
I33
tp24
sS'duration'
p25
I39
sS'type'
p26
cnumpy.core.multiarray
scalar
p27
(cnumpy
dtype
p28
(S'i8'
p29
I0
I1
tp30
Rp31
(I3
S'<'
p32
NNNI-1
I-1
I0
tp33
bS'\x02\x00\x00\x00\x00\x00\x00\x00'
p34
tp35
Rp36
sS'id'
p37
I3
sbsS'tarjan_index'
p38
I-1
sS'tarjan_low_link'
p39
I-1
sS'priority'
p40
NsS'children'
p41
g5
((lp42
(iPrecedenceGraph
Node
p43
(dp44
g9
Nsg10
g11
(g12
g13
Ntp45
Rp46
(dp47
g17
I113
sg18
I0
sg19
I0
sg20
I151
sg21
I845
sg22
I807
sg23
(I12
I99
tp48
sg25
I39
sg26
g27
(g31
S'\x02\x00\x00\x00\x00\x00\x00\x00'
p49
tp50
Rp51
sg37
I1
sbsg38
I-1
sg39
I-1
sg40
Nsg41
g5
((lp52
tp53
Rp54
sbatp55
Rp56
sbatp57
Rp58
sS'_nodes'
p59
g5
((lp60
g43
a(iPrecedenceGraph
Node
p61
(dp62
g9
Nsg10
g11
(g12
g13
Ntp63
Rp64
(dp65
g17
I107
sg18
I0
sg19
I0
sg20
I145
sg21
I344
sg22
I306
sg23
(I66
I90
tp66
sg25
I39
sg26
g27
(g31
S'\x01\x00\x00\x00\x00\x00\x00\x00'
p67
tp68
Rp69
sg37
I2
sbsg38
I-1
sg39
I-1
sg40
Nsg41
g5
((lp70
g7
atp71
Rp72
sbag7
a(iPrecedenceGraph
Node
p73
(dp74
g9
Nsg10
g11
(g12
g13
Ntp75
Rp76
(dp77
g17
I106
sg18
I0
sg19
I0
sg20
I144
sg21
I390
sg22
I352
sg23
(I54
I39
tp78
sg25
I39
sg26
g27
(g31
S'\x02\x00\x00\x00\x00\x00\x00\x00'
p79
tp80
Rp81
sg37
I4
sbsg38
I-1
sg39
I-1
sg40
Nsg41
g5
((lp82
g43
atp83
Rp84
sba(iPrecedenceGraph
Node
p85
(dp86
g9
Nsg10
g11
(g12
g13
Ntp87
Rp88
(dp89
g17
I46
sg18
I0
sg19
I0
sg20
I84
sg21
I1075
sg22
I1037
sg23
(I34
I42
tp90
sg25
I39
sg26
g27
(g31
S'\x01\x00\x00\x00\x00\x00\x00\x00'
p91
tp92
Rp93
sg37
I5
sbsg38
I-1
sg39
I-1
sg40
Nsg41
g5
((lp94
tp95
Rp96
sbatp97
Rp98
sS'hidden_layer'
p99
g5
((lp100
g43
atp101
Rp102
sS'scheduled_nodes'
p103
g5
((lp104
tp105
Rp106
sS'_tarjan_scc'
p107
(lp108
(lp109
g46
aa(lp110
g15
aa(lp111
g64
aa(lp112
g76
aa(lp113
g88
aasS'first_layer'
p114
g5
((lp115
g61
ag73
ag85
atp116
Rp117
sba(iPrecedenceGraph
PrecedenceGraph
p118
(dp119
g4
g5
((lp120
(iPrecedenceGraph
Node
p121
(dp122
g9
Nsg10
g15
sg38
I-1
sg39
I-1
sg40
Nsg41
g5
((lp123
tp124
Rp125
sba(iPrecedenceGraph
Node
p126
(dp127
g9
Nsg10
g76
sg38
I-1
sg39
I-1
sg40
Nsg41
g5
((lp128
(iPrecedenceGraph
Node
p129
(dp130
g9
Nsg10
g46
sg38
I-1
sg39
I-1
sg40
Nsg41
g5
((lp131
(iPrecedenceGraph
Node
p132
(dp133
g9
Nsg10
g88
sg38
I-1
sg39
I-1
sg40
Nsg41
g5
((lp134
tp135
Rp136
sbatp137
Rp138
sbatp139
Rp140
sbatp141
Rp142
sg59
g5
((lp143
g129
a(iPrecedenceGraph
Node
p144
(dp145
g9
Nsg10
g64
sg38
I-1
sg39
I-1
sg40
Nsg41
g5
((lp146
g121
ag126
atp147
Rp148
sbag121
ag126
ag132
atp149
Rp150
sg99
g5
((lp151
g129
ag132
atp152
Rp153
sg103
g5
((lp154
tp155
Rp156
sg107
(lp157
(lp158
g88
aa(lp159
g46
aa(lp160
g15
aa(lp161
g76
aa(lp162
g64
aasg114
g5
((lp163
g144
atp164
Rp165
sba(iPrecedenceGraph
PrecedenceGraph
p166
(dp167
g4
g5
((lp168
(iPrecedenceGraph
Node
p169
(dp170
g9
Nsg10
g15
sg38
I-1
sg39
I-1
sg40
Nsg41
g5
((lp171
(iPrecedenceGraph
Node
p172
(dp173
g9
Nsg10
g46
sg38
I-1
sg39
I-1
sg40
Nsg41
g5
((lp174
tp175
Rp176
sba(iPrecedenceGraph
Node
p177
(dp178
g9
Nsg10
g88
sg38
I-1
sg39
I-1
sg40
Nsg41
g5
((lp179
tp180
Rp181
sbatp182
Rp183
sba(iPrecedenceGraph
Node
p184
(dp185
g9
Nsg10
g76
sg38
I-1
sg39
I-1
sg40
Nsg41
g5
((lp186
g172
ag177
atp187
Rp188
sbatp189
Rp190
sg59
g5
((lp191
g172
a(iPrecedenceGraph
Node
p192
(dp193
g9
Nsg10
g64
sg38
I-1
sg39
I-1
sg40
Nsg41
g5
((lp194
g169
ag184
ag177
atp195
Rp196
sbag169
ag184
ag177
atp197
Rp198
sg99
g5
((lp199
g172
ag177
atp200
Rp201
sg103
g5
((lp202
tp203
Rp204
sg107
(lp205
(lp206
g46
aa(lp207
g88
aa(lp208
g15
aa(lp209
g76
aa(lp210
g64
aasg114
g5
((lp211
g192
atp212
Rp213
sba(iPrecedenceGraph
PrecedenceGraph
p214
(dp215
g4
g5
((lp216
(iPrecedenceGraph
Node
p217
(dp218
g9
Nsg10
g46
sg38
I-1
sg39
I-1
sg40
Nsg41
g5
((lp219
tp220
Rp221
sba(iPrecedenceGraph
Node
p222
(dp223
g9
Nsg10
g76
sg38
I-1
sg39
I-1
sg40
Nsg41
g5
((lp224
tp225
Rp226
sbatp227
Rp228
sg59
g5
((lp229
g217
a(iPrecedenceGraph
Node
p230
(dp231
g9
Nsg10
g64
sg38
I-1
sg39
I-1
sg40
Nsg41
g5
((lp232
g217
ag222
atp233
Rp234
sba(iPrecedenceGraph
Node
p235
(dp236
g9
Nsg10
g15
sg38
I-1
sg39
I-1
sg40
Nsg41
g5
((lp237
tp238
Rp239
sbag222
a(iPrecedenceGraph
Node
p240
(dp241
g9
Nsg10
g88
sg38
I-1
sg39
I-1
sg40
Nsg41
g5
((lp242
tp243
Rp244
sbatp245
Rp246
sg99
g5
((lp247
tp248
Rp249
sg103
g5
((lp250
tp251
Rp252
sg107
(lp253
(lp254
g46
aa(lp255
g76
aa(lp256
g64
aa(lp257
g15
aa(lp258
g88
aasg114
g5
((lp259
g230
ag235
ag240
atp260
Rp261
sba(iPrecedenceGraph
PrecedenceGraph
p262
(dp263
g4
g5
((lp264
(iPrecedenceGraph
Node
p265
(dp266
g9
Nsg10
g15
sg38
I-1
sg39
I-1
sg40
Nsg41
g5
((lp267
(iPrecedenceGraph
Node
p268
(dp269
g9
Nsg10
g46
sg38
I-1
sg39
I-1
sg40
Nsg41
g5
((lp270
tp271
Rp272
sbatp273
Rp274
sba(iPrecedenceGraph
Node
p275
(dp276
g9
Nsg10
g76
sg38
I-1
sg39
I-1
sg40
Nsg41
g5
((lp277
tp278
Rp279
sba(iPrecedenceGraph
Node
p280
(dp281
g9
Nsg10
g88
sg38
I-1
sg39
I-1
sg40
Nsg41
g5
((lp282
tp283
Rp284
sbatp285
Rp286
sg59
g5
((lp287
g268
a(iPrecedenceGraph
Node
p288
(dp289
g9
Nsg10
g64
sg38
I-1
sg39
I-1
sg40
Nsg41
g5
((lp290
g265
ag275
ag280
atp291
Rp292
sbag265
ag275
ag280
atp293
Rp294
sg99
g5
((lp295
g268
atp296
Rp297
sg103
g5
((lp298
tp299
Rp300
sg107
(lp301
(lp302
g46
aa(lp303
g15
aa(lp304
g76
aa(lp305
g88
aa(lp306
g64
aasg114
g5
((lp307
g288
atp308
Rp309
sba(iPrecedenceGraph
PrecedenceGraph
p310
(dp311
g4
g5
((lp312
(iPrecedenceGraph
Node
p313
(dp314
g9
Nsg10
g15
sg38
I-1
sg39
I-1
sg40
Nsg41
g5
((lp315
(iPrecedenceGraph
Node
p316
(dp317
g9
Nsg10
g88
sg38
I-1
sg39
I-1
sg40
Nsg41
g5
((lp318
tp319
Rp320
sbatp321
Rp322
sbatp323
Rp324
sg59
g5
((lp325
(iPrecedenceGraph
Node
p326
(dp327
g9
Nsg10
g46
sg38
I-1
sg39
I-1
sg40
Nsg41
g5
((lp328
g316
atp329
Rp330
sba(iPrecedenceGraph
Node
p331
(dp332
g9
Nsg10
g64
sg38
I-1
sg39
I-1
sg40
Nsg41
g5
((lp333
g313
atp334
Rp335
sbag313
a(iPrecedenceGraph
Node
p336
(dp337
g9
Nsg10
g76
sg38
I-1
sg39
I-1
sg40
Nsg41
g5
((lp338
tp339
Rp340
sbag316
atp341
Rp342
sg99
g5
((lp343
g316
atp344
Rp345
sg103
g5
((lp346
tp347
Rp348
sg107
(lp349
(lp350
g88
aa(lp351
g46
aa(lp352
g15
aa(lp353
g64
aa(lp354
g76
aasg114
g5
((lp355
g326
ag331
ag336
atp356
Rp357
sba(iPrecedenceGraph
PrecedenceGraph
p358
(dp359
g4
g5
((lp360
(iPrecedenceGraph
Node
p361
(dp362
g9
Nsg10
g46
sg38
I-1
sg39
I-1
sg40
Nsg41
g5
((lp363
(iPrecedenceGraph
Node
p364
(dp365
g9
Nsg10
g88
sg38
I-1
sg39
I-1
sg40
Nsg41
g5
((lp366
tp367
Rp368
sbatp369
Rp370
sba(iPrecedenceGraph
Node
p371
(dp372
g9
Nsg10
g15
sg38
I-1
sg39
I-1
sg40
Nsg41
g5
((lp373
g364
atp374
Rp375
sbatp376
Rp377
sg59
g5
((lp378
g361
a(iPrecedenceGraph
Node
p379
(dp380
g9
Nsg10
g64
sg38
I-1
sg39
I-1
sg40
Nsg41
g5
((lp381
g361
atp382
Rp383
sbag371
a(iPrecedenceGraph
Node
p384
(dp385
g9
Nsg10
g76
sg38
I-1
sg39
I-1
sg40
Nsg41
g5
((lp386
g361
ag371
atp387
Rp388
sbag364
atp389
Rp390
sg99
g5
((lp391
g364
atp392
Rp393
sg103
g5
((lp394
tp395
Rp396
sg107
(lp397
(lp398
g88
aa(lp399
g46
aa(lp400
g64
aa(lp401
g15
aa(lp402
g76
aasg114
g5
((lp403
g379
ag384
atp404
Rp405
sba(iPrecedenceGraph
PrecedenceGraph
p406
(dp407
g4
g5
((lp408
(iPrecedenceGraph
Node
p409
(dp410
g9
Nsg10
g76
sg38
I-1
sg39
I-1
sg40
Nsg41
g5
((lp411
(iPrecedenceGraph
Node
p412
(dp413
g9
Nsg10
g46
sg38
I-1
sg39
I-1
sg40
Nsg41
g5
((lp414
(iPrecedenceGraph
Node
p415
(dp416
g9
Nsg10
g88
sg38
I-1
sg39
I-1
sg40
Nsg41
g5
((lp417
tp418
Rp419
sbatp420
Rp421
sbag415
atp422
Rp423
sbatp424
Rp425
sg59
g5
((lp426
g412
a(iPrecedenceGraph
Node
p427
(dp428
g9
Nsg10
g64
sg38
I-1
sg39
I-1
sg40
Nsg41
g5
((lp429
g412
ag409
atp430
Rp431
sba(iPrecedenceGraph
Node
p432
(dp433
g9
Nsg10
g15
sg38
I-1
sg39
I-1
sg40
Nsg41
g5
((lp434
g415
atp435
Rp436
sbag409
ag415
atp437
Rp438
sg99
g5
((lp439
g412
ag415
atp440
Rp441
sg103
g5
((lp442
tp443
Rp444
sg107
(lp445
(lp446
g88
aa(lp447
g46
aa(lp448
g76
aa(lp449
g64
aa(lp450
g15
aasg114
g5
((lp451
g427
ag432
atp452
Rp453
sba(iPrecedenceGraph
PrecedenceGraph
p454
(dp455
g4
g5
((lp456
(iPrecedenceGraph
Node
p457
(dp458
g9
Nsg10
g76
sg38
I-1
sg39
I-1
sg40
Nsg41
g5
((lp459
(iPrecedenceGraph
Node
p460
(dp461
g9
Nsg10
g46
sg38
I-1
sg39
I-1
sg40
Nsg41
g5
((lp462
tp463
Rp464
sbatp465
Rp466
sbatp467
Rp468
sg59
g5
((lp469
g460
a(iPrecedenceGraph
Node
p470
(dp471
g9
Nsg10
g64
sg38
I-1
sg39
I-1
sg40
Nsg41
g5
((lp472
g460
ag457
atp473
Rp474
sba(iPrecedenceGraph
Node
p475
(dp476
g9
Nsg10
g15
sg38
I-1
sg39
I-1
sg40
Nsg41
g5
((lp477
g460
atp478
Rp479
sbag457
a(iPrecedenceGraph
Node
p480
(dp481
g9
Nsg10
g88
sg38
I-1
sg39
I-1
sg40
Nsg41
g5
((lp482
tp483
Rp484
sbatp485
Rp486
sg99
g5
((lp487
g460
atp488
Rp489
sg103
g5
((lp490
tp491
Rp492
sg107
(lp493
(lp494
g46
aa(lp495
g76
aa(lp496
g64
aa(lp497
g15
aa(lp498
g88
aasg114
g5
((lp499
g470
ag475
ag480
atp500
Rp501
sba(iPrecedenceGraph
PrecedenceGraph
p502
(dp503
g4
g5
((lp504
(iPrecedenceGraph
Node
p505
(dp506
g9
Nsg10
g46
sg38
I-1
sg39
I-1
sg40
Nsg41
g5
((lp507
tp508
Rp509
sba(iPrecedenceGraph
Node
p510
(dp511
g9
Nsg10
g15
sg38
I-1
sg39
I-1
sg40
Nsg41
g5
((lp512
tp513
Rp514
sba(iPrecedenceGraph
Node
p515
(dp516
g9
Nsg10
g88
sg38
I-1
sg39
I-1
sg40
Nsg41
g5
((lp517
tp518
Rp519
sbatp520
Rp521
sg59
g5
((lp522
g505
a(iPrecedenceGraph
Node
p523
(dp524
g9
Nsg10
g64
sg38
I-1
sg39
I-1
sg40
Nsg41
g5
((lp525
tp526
Rp527
sbag510
a(iPrecedenceGraph
Node
p528
(dp529
g9
Nsg10
g76
sg38
I-1
sg39
I-1
sg40
Nsg41
g5
((lp530
g505
ag510
ag515
atp531
Rp532
sbag515
atp533
Rp534
sg99
g5
((lp535
tp536
Rp537
sg103
g5
((lp538
tp539
Rp540
sg107
(lp541
(lp542
g46
aa(lp543
g64
aa(lp544
g15
aa(lp545
g88
aa(lp546
g76
aasg114
g5
((lp547
g523
ag528
atp548
Rp549
sba(iPrecedenceGraph
PrecedenceGraph
p550
(dp551
g4
g5
((lp552
(iPrecedenceGraph
Node
p553
(dp554
g9
Nsg10
g46
sg38
I-1
sg39
I-1
sg40
Nsg41
g5
((lp555
tp556
Rp557
sba(iPrecedenceGraph
Node
p558
(dp559
g9
Nsg10
g76
sg38
I-1
sg39
I-1
sg40
Nsg41
g5
((lp560
(iPrecedenceGraph
Node
p561
(dp562
g9
Nsg10
g15
sg38
I-1
sg39
I-1
sg40
Nsg41
g5
((lp563
(iPrecedenceGraph
Node
p564
(dp565
g9
Nsg10
g88
sg38
I-1
sg39
I-1
sg40
Nsg41
g5
((lp566
tp567
Rp568
sbatp569
Rp570
sbatp571
Rp572
sbatp573
Rp574
sg59
g5
((lp575
g553
a(iPrecedenceGraph
Node
p576
(dp577
g9
Nsg10
g64
sg38
I-1
sg39
I-1
sg40
Nsg41
g5
((lp578
g553
ag558
atp579
Rp580
sbag561
ag558
ag564
atp581
Rp582
sg99
g5
((lp583
g561
ag564
atp584
Rp585
sg103
g5
((lp586
tp587
Rp588
sg107
(lp589
(lp590
g46
aa(lp591
g88
aa(lp592
g15
aa(lp593
g76
aa(lp594
g64
aasg114
g5
((lp595
g576
atp596
Rp597
sba(iPrecedenceGraph
PrecedenceGraph
p598
(dp599
g4
g5
((lp600
(iPrecedenceGraph
Node
p601
(dp602
g9
Nsg10
g15
sg38
I-1
sg39
I-1
sg40
Nsg41
g5
((lp603
tp604
Rp605
sba(iPrecedenceGraph
Node
p606
(dp607
g9
Nsg10
g76
sg38
I-1
sg39
I-1
sg40
Nsg41
g5
((lp608
(iPrecedenceGraph
Node
p609
(dp610
g9
Nsg10
g88
sg38
I-1
sg39
I-1
sg40
Nsg41
g5
((lp611
tp612
Rp613
sbatp614
Rp615
sbatp616
Rp617
sg59
g5
((lp618
(iPrecedenceGraph
Node
p619
(dp620
g9
Nsg10
g46
sg38
I-1
sg39
I-1
sg40
Nsg41
g5
((lp621
tp622
Rp623
sba(iPrecedenceGraph
Node
p624
(dp625
g9
Nsg10
g64
sg38
I-1
sg39
I-1
sg40
Nsg41
g5
((lp626
g601
ag606
atp627
Rp628
sbag601
ag606
ag609
atp629
Rp630
sg99
g5
((lp631
g609
atp632
Rp633
sg103
g5
((lp634
tp635
Rp636
sg107
(lp637
(lp638
g46
aa(lp639
g15
aa(lp640
g88
aa(lp641
g76
aa(lp642
g64
aasg114
g5
((lp643
g619
ag624
atp644
Rp645
sba(iPrecedenceGraph
PrecedenceGraph
p646
(dp647
g4
g5
((lp648
(iPrecedenceGraph
Node
p649
(dp650
g9
Nsg10
g76
sg38
I-1
sg39
I-1
sg40
Nsg41
g5
((lp651
(iPrecedenceGraph
Node
p652
(dp653
g9
Nsg10
g88
sg38
I-1
sg39
I-1
sg40
Nsg41
g5
((lp654
tp655
Rp656
sbatp657
Rp658
sbatp659
Rp660
sg59
g5
((lp661
(iPrecedenceGraph
Node
p662
(dp663
g9
Nsg10
g46
sg38
I-1
sg39
I-1
sg40
Nsg41
g5
((lp664
tp665
Rp666
sba(iPrecedenceGraph
Node
p667
(dp668
g9
Nsg10
g64
sg38
I-1
sg39
I-1
sg40
Nsg41
g5
((lp669
g649
ag652
atp670
Rp671
sba(iPrecedenceGraph
Node
p672
(dp673
g9
Nsg10
g15
sg38
I-1
sg39
I-1
sg40
Nsg41
g5
((lp674
tp675
Rp676
sbag649
ag652
atp677
Rp678
sg99
g5
((lp679
g652
atp680
Rp681
sg103
g5
((lp682
tp683
Rp684
sg107
(lp685
(lp686
g46
aa(lp687
g88
aa(lp688
g76
aa(lp689
g64
aa(lp690
g15
aasg114
g5
((lp691
g662
ag667
ag672
atp692
Rp693
sba(iPrecedenceGraph
PrecedenceGraph
p694
(dp695
g4
g5
((lp696
(iPrecedenceGraph
Node
p697
(dp698
g9
Nsg10
g15
sg38
I-1
sg39
I-1
sg40
Nsg41
g5
((lp699
(iPrecedenceGraph
Node
p700
(dp701
g9
Nsg10
g46
sg38
I-1
sg39
I-1
sg40
Nsg41
g5
((lp702
(iPrecedenceGraph
Node
p703
(dp704
g9
Nsg10
g88
sg38
I-1
sg39
I-1
sg40
Nsg41
g5
((lp705
tp706
Rp707
sbatp708
Rp709
sbatp710
Rp711
sbatp712
Rp713
sg59
g5
((lp714
g700
a(iPrecedenceGraph
Node
p715
(dp716
g9
Nsg10
g64
sg38
I-1
sg39
I-1
sg40
Nsg41
g5
((lp717
g697
ag703
atp718
Rp719
sbag697
a(iPrecedenceGraph
Node
p720
(dp721
g9
Nsg10
g76
sg38
I-1
sg39
I-1
sg40
Nsg41
g5
((lp722
g700
ag697
atp723
Rp724
sbag703
atp725
Rp726
sg99
g5
((lp727
g700
ag703
atp728
Rp729
sg103
g5
((lp730
tp731
Rp732
sg107
(lp733
(lp734
g88
aa(lp735
g46
aa(lp736
g15
aa(lp737
g64
aa(lp738
g76
aasg114
g5
((lp739
g715
ag720
atp740
Rp741
sba(iPrecedenceGraph
PrecedenceGraph
p742
(dp743
g4
g5
((lp744
(iPrecedenceGraph
Node
p745
(dp746
g9
Nsg10
g15
sg38
I-1
sg39
I-1
sg40
Nsg41
g5
((lp747
(iPrecedenceGraph
Node
p748
(dp749
g9
Nsg10
g88
sg38
I-1
sg39
I-1
sg40
Nsg41
g5
((lp750
tp751
Rp752
sbatp753
Rp754
sbatp755
Rp756
sg59
g5
((lp757
(iPrecedenceGraph
Node
p758
(dp759
g9
Nsg10
g46
sg38
I-1
sg39
I-1
sg40
Nsg41
g5
((lp760
tp761
Rp762
sba(iPrecedenceGraph
Node
p763
(dp764
g9
Nsg10
g64
sg38
I-1
sg39
I-1
sg40
Nsg41
g5
((lp765
tp766
Rp767
sbag745
a(iPrecedenceGraph
Node
p768
(dp769
g9
Nsg10
g76
sg38
I-1
sg39
I-1
sg40
Nsg41
g5
((lp770
g745
atp771
Rp772
sbag748
atp773
Rp774
sg99
g5
((lp775
g748
atp776
Rp777
sg103
g5
((lp778
tp779
Rp780
sg107
(lp781
(lp782
g46
aa(lp783
g64
aa(lp784
g88
aa(lp785
g15
aa(lp786
g76
aasg114
g5
((lp787
g758
ag763
ag768
atp788
Rp789
sba(iPrecedenceGraph
PrecedenceGraph
p790
(dp791
g4
g5
((lp792
(iPrecedenceGraph
Node
p793
(dp794
g9
Nsg10
g46
sg38
I-1
sg39
I-1
sg40
Nsg41
g5
((lp795
tp796
Rp797
sba(iPrecedenceGraph
Node
p798
(dp799
g9
Nsg10
g15
sg38
I-1
sg39
I-1
sg40
Nsg41
g5
((lp800
(iPrecedenceGraph
Node
p801
(dp802
g9
Nsg10
g88
sg38
I-1
sg39
I-1
sg40
Nsg41
g5
((lp803
tp804
Rp805
sbatp806
Rp807
sbatp808
Rp809
sg59
g5
((lp810
g793
a(iPrecedenceGraph
Node
p811
(dp812
g9
Nsg10
g64
sg38
I-1
sg39
I-1
sg40
Nsg41
g5
((lp813
g793
atp814
Rp815
sbag798
a(iPrecedenceGraph
Node
p816
(dp817
g9
Nsg10
g76
sg38
I-1
sg39
I-1
sg40
Nsg41
g5
((lp818
g798
atp819
Rp820
sbag801
atp821
Rp822
sg99
g5
((lp823
g801
atp824
Rp825
sg103
g5
((lp826
tp827
Rp828
sg107
(lp829
(lp830
g46
aa(lp831
g64
aa(lp832
g88
aa(lp833
g15
aa(lp834
g76
aasg114
g5
((lp835
g811
ag816
atp836
Rp837
sba(iPrecedenceGraph
PrecedenceGraph
p838
(dp839
g4
g5
((lp840
(iPrecedenceGraph
Node
p841
(dp842
g9
Nsg10
g76
sg38
I-1
sg39
I-1
sg40
Nsg41
g5
((lp843
(iPrecedenceGraph
Node
p844
(dp845
g9
Nsg10
g46
sg38
I-1
sg39
I-1
sg40
Nsg41
g5
((lp846
(iPrecedenceGraph
Node
p847
(dp848
g9
Nsg10
g88
sg38
I-1
sg39
I-1
sg40
Nsg41
g5
((lp849
tp850
Rp851
sbatp852
Rp853
sba(iPrecedenceGraph
Node
p854
(dp855
g9
Nsg10
g15
sg38
I-1
sg39
I-1
sg40
Nsg41
g5
((lp856
g847
atp857
Rp858
sbatp859
Rp860
sbatp861
Rp862
sg59
g5
((lp863
g844
a(iPrecedenceGraph
Node
p864
(dp865
g9
Nsg10
g64
sg38
I-1
sg39
I-1
sg40
Nsg41
g5
((lp866
g844
ag854
ag841
atp867
Rp868
sbag854
ag841
ag847
atp869
Rp870
sg99
g5
((lp871
g844
ag854
ag847
atp872
Rp873
sg103
g5
((lp874
tp875
Rp876
sg107
(lp877
(lp878
g88
aa(lp879
g46
aa(lp880
g15
aa(lp881
g76
aa(lp882
g64
aasg114
g5
((lp883
g864
atp884
Rp885
sba(iPrecedenceGraph
PrecedenceGraph
p886
(dp887
g4
g5
((lp888
(iPrecedenceGraph
Node
p889
(dp890
g9
Nsg10
g76
sg38
I-1
sg39
I-1
sg40
Nsg41
g5
((lp891
(iPrecedenceGraph
Node
p892
(dp893
g9
Nsg10
g46
sg38
I-1
sg39
I-1
sg40
Nsg41
g5
((lp894
(iPrecedenceGraph
Node
p895
(dp896
g9
Nsg10
g88
sg38
I-1
sg39
I-1
sg40
Nsg41
g5
((lp897
tp898
Rp899
sbatp900
Rp901
sba(iPrecedenceGraph
Node
p902
(dp903
g9
Nsg10
g15
sg38
I-1
sg39
I-1
sg40
Nsg41
g5
((lp904
g892
atp905
Rp906
sbag895
atp907
Rp908
sbatp909
Rp910
sg59
g5
((lp911
g892
a(iPrecedenceGraph
Node
p912
(dp913
g9
Nsg10
g64
sg38
I-1
sg39
I-1
sg40
Nsg41
g5
((lp914
g889
ag895
atp915
Rp916
sbag902
ag889
ag895
atp917
Rp918
sg99
g5
((lp919
g892
ag902
ag895
atp920
Rp921
sg103
g5
((lp922
tp923
Rp924
sg107
(lp925
(lp926
g88
aa(lp927
g46
aa(lp928
g15
aa(lp929
g76
aa(lp930
g64
aasg114
g5
((lp931
g912
atp932
Rp933
sba(iPrecedenceGraph
PrecedenceGraph
p934
(dp935
g4
g5
((lp936
(iPrecedenceGraph
Node
p937
(dp938
g9
Nsg10
g76
sg38
I-1
sg39
I-1
sg40
Nsg41
g5
((lp939
(iPrecedenceGraph
Node
p940
(dp941
g9
Nsg10
g46
sg38
I-1
sg39
I-1
sg40
Nsg41
g5
((lp942
tp943
Rp944
sbatp945
Rp946
sba(iPrecedenceGraph
Node
p947
(dp948
g9
Nsg10
g88
sg38
I-1
sg39
I-1
sg40
Nsg41
g5
((lp949
tp950
Rp951
sbatp952
Rp953
sg59
g5
((lp954
g940
a(iPrecedenceGraph
Node
p955
(dp956
g9
Nsg10
g64
sg38
I-1
sg39
I-1
sg40
Nsg41
g5
((lp957
g937
ag947
atp958
Rp959
sba(iPrecedenceGraph
Node
p960
(dp961
g9
Nsg10
g15
sg38
I-1
sg39
I-1
sg40
Nsg41
g5
((lp962
g947
atp963
Rp964
sbag937
ag947
atp965
Rp966
sg99
g5
((lp967
g940
atp968
Rp969
sg103
g5
((lp970
tp971
Rp972
sg107
(lp973
(lp974
g46
aa(lp975
g76
aa(lp976
g88
aa(lp977
g64
aa(lp978
g15
aasg114
g5
((lp979
g955
ag960
atp980
Rp981
sba(iPrecedenceGraph
PrecedenceGraph
p982
(dp983
g4
g5
((lp984
(iPrecedenceGraph
Node
p985
(dp986
g9
Nsg10
g46
sg38
I-1
sg39
I-1
sg40
Nsg41
g5
((lp987
(iPrecedenceGraph
Node
p988
(dp989
g9
Nsg10
g88
sg38
I-1
sg39
I-1
sg40
Nsg41
g5
((lp990
tp991
Rp992
sbatp993
Rp994
sbatp995
Rp996
sg59
g5
((lp997
g985
a(iPrecedenceGraph
Node
p998
(dp999
g9
Nsg10
g64
sg38
I-1
sg39
I-1
sg40
Nsg41
g5
((lp1000
tp1001
Rp1002
sba(iPrecedenceGraph
Node
p1003
(dp1004
g9
Nsg10
g15
sg38
I-1
sg39
I-1
sg40
Nsg41
g5
((lp1005
tp1006
Rp1007
sba(iPrecedenceGraph
Node
p1008
(dp1009
g9
Nsg10
g76
sg38
I-1
sg39
I-1
sg40
Nsg41
g5
((lp1010
g985
ag988
atp1011
Rp1012
sbag988
atp1013
Rp1014
sg99
g5
((lp1015
g988
atp1016
Rp1017
sg103
g5
((lp1018
tp1019
Rp1020
sg107
(lp1021
(lp1022
g88
aa(lp1023
g46
aa(lp1024
g64
aa(lp1025
g15
aa(lp1026
g76
aasg114
g5
((lp1027
g998
ag1003
ag1008
atp1028
Rp1029
sba(iPrecedenceGraph
PrecedenceGraph
p1030
(dp1031
g4
g5
((lp1032
(iPrecedenceGraph
Node
p1033
(dp1034
g9
Nsg10
g15
sg38
I-1
sg39
I-1
sg40
Nsg41
g5
((lp1035
(iPrecedenceGraph
Node
p1036
(dp1037
g9
Nsg10
g46
sg38
I-1
sg39
I-1
sg40
Nsg41
g5
((lp1038
(iPrecedenceGraph
Node
p1039
(dp1040
g9
Nsg10
g88
sg38
I-1
sg39
I-1
sg40
Nsg41
g5
((lp1041
tp1042
Rp1043
sbatp1044
Rp1045
sbatp1046
Rp1047
sba(iPrecedenceGraph
Node
p1048
(dp1049
g9
Nsg10
g76
sg38
I-1
sg39
I-1
sg40
Nsg41
g5
((lp1050
tp1051
Rp1052
sbatp1053
Rp1054
sg59
g5
((lp1055
g1036
a(iPrecedenceGraph
Node
p1056
(dp1057
g9
Nsg10
g64
sg38
I-1
sg39
I-1
sg40
Nsg41
g5
((lp1058
g1036
ag1033
ag1048
atp1059
Rp1060
sbag1033
ag1048
ag1039
atp1061
Rp1062
sg99
g5
((lp1063
g1036
ag1039
atp1064
Rp1065
sg103
g5
((lp1066
tp1067
Rp1068
sg107
(lp1069
(lp1070
g88
aa(lp1071
g46
aa(lp1072
g15
aa(lp1073
g76
aa(lp1074
g64
aasg114
g5
((lp1075
g1056
atp1076
Rp1077
sba(iPrecedenceGraph
PrecedenceGraph
p1078
(dp1079
g4
g5
((lp1080
(iPrecedenceGraph
Node
p1081
(dp1082
g9
Nsg10
g76
sg38
I-1
sg39
I-1
sg40
Nsg41
g5
((lp1083
(iPrecedenceGraph
Node
p1084
(dp1085
g9
Nsg10
g46
sg38
I-1
sg39
I-1
sg40
Nsg41
g5
((lp1086
(iPrecedenceGraph
Node
p1087
(dp1088
g9
Nsg10
g88
sg38
I-1
sg39
I-1
sg40
Nsg41
g5
((lp1089
tp1090
Rp1091
sbatp1092
Rp1093
sba(iPrecedenceGraph
Node
p1094
(dp1095
g9
Nsg10
g15
sg38
I-1
sg39
I-1
sg40
Nsg41
g5
((lp1096
g1084
atp1097
Rp1098
sbatp1099
Rp1100
sbatp1101
Rp1102
sg59
g5
((lp1103
g1084
a(iPrecedenceGraph
Node
p1104
(dp1105
g9
Nsg10
g64
sg38
I-1
sg39
I-1
sg40
Nsg41
g5
((lp1106
g1081
atp1107
Rp1108
sbag1094
ag1081
ag1087
atp1109
Rp1110
sg99
g5
((lp1111
g1084
ag1094
ag1087
atp1112
Rp1113
sg103
g5
((lp1114
tp1115
Rp1116
sg107
(lp1117
(lp1118
g88
aa(lp1119
g46
aa(lp1120
g15
aa(lp1121
g76
aa(lp1122
g64
aasg114
g5
((lp1123
g1104
atp1124
Rp1125
sba(iPrecedenceGraph
PrecedenceGraph
p1126
(dp1127
g4
g5
((lp1128
(iPrecedenceGraph
Node
p1129
(dp1130
g9
Nsg10
g46
sg38
I-1
sg39
I-1
sg40
Nsg41
g5
((lp1131
tp1132
Rp1133
sba(iPrecedenceGraph
Node
p1134
(dp1135
g9
Nsg10
g76
sg38
I-1
sg39
I-1
sg40
Nsg41
g5
((lp1136
(iPrecedenceGraph
Node
p1137
(dp1138
g9
Nsg10
g15
sg38
I-1
sg39
I-1
sg40
Nsg41
g5
((lp1139
tp1140
Rp1141
sba(iPrecedenceGraph
Node
p1142
(dp1143
g9
Nsg10
g88
sg38
I-1
sg39
I-1
sg40
Nsg41
g5
((lp1144
tp1145
Rp1146
sbatp1147
Rp1148
sbatp1149
Rp1150
sg59
g5
((lp1151
g1129
a(iPrecedenceGraph
Node
p1152
(dp1153
g9
Nsg10
g64
sg38
I-1
sg39
I-1
sg40
Nsg41
g5
((lp1154
g1129
ag1134
ag1142
atp1155
Rp1156
sbag1137
ag1134
ag1142
atp1157
Rp1158
sg99
g5
((lp1159
g1137
ag1142
atp1160
Rp1161
sg103
g5
((lp1162
tp1163
Rp1164
sg107
(lp1165
(lp1166
g46
aa(lp1167
g15
aa(lp1168
g88
aa(lp1169
g76
aa(lp1170
g64
aasg114
g5
((lp1171
g1152
atp1172
Rp1173
sba(iPrecedenceGraph
PrecedenceGraph
p1174
(dp1175
g4
g5
((lp1176
(iPrecedenceGraph
Node
p1177
(dp1178
g9
Nsg10
g15
sg38
I-1
sg39
I-1
sg40
Nsg41
g5
((lp1179
(iPrecedenceGraph
Node
p1180
(dp1181
g9
Nsg10
g88
sg38
I-1
sg39
I-1
sg40
Nsg41
g5
((lp1182
tp1183
Rp1184
sbatp1185
Rp1186
sba(iPrecedenceGraph
Node
p1187
(dp1188
g9
Nsg10
g76
sg38
I-1
sg39
I-1
sg40
Nsg41
g5
((lp1189
g1180
atp1190
Rp1191
sbatp1192
Rp1193
sg59
g5
((lp1194
(iPrecedenceGraph
Node
p1195
(dp1196
g9
Nsg10
g46
sg38
I-1
sg39
I-1
sg40
Nsg41
g5
((lp1197
g1180
atp1198
Rp1199
sba(iPrecedenceGraph
Node
p1200
(dp1201
g9
Nsg10
g64
sg38
I-1
sg39
I-1
sg40
Nsg41
g5
((lp1202
g1177
ag1187
atp1203
Rp1204
sbag1177
ag1187
ag1180
atp1205
Rp1206
sg99
g5
((lp1207
g1180
atp1208
Rp1209
sg103
g5
((lp1210
tp1211
Rp1212
sg107
(lp1213
(lp1214
g88
aa(lp1215
g46
aa(lp1216
g15
aa(lp1217
g76
aa(lp1218
g64
aasg114
g5
((lp1219
g1195
ag1200
atp1220
Rp1221
sba(iPrecedenceGraph
PrecedenceGraph
p1222
(dp1223
g4
g5
((lp1224
(iPrecedenceGraph
Node
p1225
(dp1226
g9
Nsg10
g46
sg38
I-1
sg39
I-1
sg40
Nsg41
g5
((lp1227
tp1228
Rp1229
sba(iPrecedenceGraph
Node
p1230
(dp1231
g9
Nsg10
g88
sg38
I-1
sg39
I-1
sg40
Nsg41
g5
((lp1232
tp1233
Rp1234
sbatp1235
Rp1236
sg59
g5
((lp1237
g1225
a(iPrecedenceGraph
Node
p1238
(dp1239
g9
Nsg10
g64
sg38
I-1
sg39
I-1
sg40
Nsg41
g5
((lp1240
tp1241
Rp1242
sba(iPrecedenceGraph
Node
p1243
(dp1244
g9
Nsg10
g15
sg38
I-1
sg39
I-1
sg40
Nsg41
g5
((lp1245
tp1246
Rp1247
sba(iPrecedenceGraph
Node
p1248
(dp1249
g9
Nsg10
g76
sg38
I-1
sg39
I-1
sg40
Nsg41
g5
((lp1250
g1225
ag1230
atp1251
Rp1252
sbag1230
atp1253
Rp1254
sg99
g5
((lp1255
tp1256
Rp1257
sg103
g5
((lp1258
tp1259
Rp1260
sg107
(lp1261
(lp1262
g46
aa(lp1263
g64
aa(lp1264
g15
aa(lp1265
g88
aa(lp1266
g76
aasg114
g5
((lp1267
g1238
ag1243
ag1248
atp1268
Rp1269
sba(iPrecedenceGraph
PrecedenceGraph
p1270
(dp1271
g4
g5
((lp1272
(iPrecedenceGraph
Node
p1273
(dp1274
g9
Nsg10
g15
sg38
I-1
sg39
I-1
sg40
Nsg41
g5
((lp1275
(iPrecedenceGraph
Node
p1276
(dp1277
g9
Nsg10
g46
sg38
I-1
sg39
I-1
sg40
Nsg41
g5
((lp1278
tp1279
Rp1280
sbatp1281
Rp1282
sba(iPrecedenceGraph
Node
p1283
(dp1284
g9
Nsg10
g88
sg38
I-1
sg39
I-1
sg40
Nsg41
g5
((lp1285
tp1286
Rp1287
sbatp1288
Rp1289
sg59
g5
((lp1290
g1276
a(iPrecedenceGraph
Node
p1291
(dp1292
g9
Nsg10
g64
sg38
I-1
sg39
I-1
sg40
Nsg41
g5
((lp1293
g1273
ag1283
atp1294
Rp1295
sbag1273
a(iPrecedenceGraph
Node
p1296
(dp1297
g9
Nsg10
g76
sg38
I-1
sg39
I-1
sg40
Nsg41
g5
((lp1298
tp1299
Rp1300
sbag1283
atp1301
Rp1302
sg99
g5
((lp1303
g1276
atp1304
Rp1305
sg103
g5
((lp1306
tp1307
Rp1308
sg107
(lp1309
(lp1310
g46
aa(lp1311
g15
aa(lp1312
g88
aa(lp1313
g64
aa(lp1314
g76
aasg114
g5
((lp1315
g1291
ag1296
atp1316
Rp1317
sba(iPrecedenceGraph
PrecedenceGraph
p1318
(dp1319
g4
g5
((lp1320
(iPrecedenceGraph
Node
p1321
(dp1322
g9
Nsg10
g15
sg38
I-1
sg39
I-1
sg40
Nsg41
g5
((lp1323
(iPrecedenceGraph
Node
p1324
(dp1325
g9
Nsg10
g46
sg38
I-1
sg39
I-1
sg40
Nsg41
g5
((lp1326
(iPrecedenceGraph
Node
p1327
(dp1328
g9
Nsg10
g88
sg38
I-1
sg39
I-1
sg40
Nsg41
g5
((lp1329
tp1330
Rp1331
sbatp1332
Rp1333
sbag1327
atp1334
Rp1335
sbatp1336
Rp1337
sg59
g5
((lp1338
g1324
a(iPrecedenceGraph
Node
p1339
(dp1340
g9
Nsg10
g64
sg38
I-1
sg39
I-1
sg40
Nsg41
g5
((lp1341
g1321
atp1342
Rp1343
sbag1321
a(iPrecedenceGraph
Node
p1344
(dp1345
g9
Nsg10
g76
sg38
I-1
sg39
I-1
sg40
Nsg41
g5
((lp1346
g1324
ag1327
atp1347
Rp1348
sbag1327
atp1349
Rp1350
sg99
g5
((lp1351
g1324
ag1327
atp1352
Rp1353
sg103
g5
((lp1354
tp1355
Rp1356
sg107
(lp1357
(lp1358
g88
aa(lp1359
g46
aa(lp1360
g15
aa(lp1361
g64
aa(lp1362
g76
aasg114
g5
((lp1363
g1339
ag1344
atp1364
Rp1365
sba(iPrecedenceGraph
PrecedenceGraph
p1366
(dp1367
g4
g5
((lp1368
(iPrecedenceGraph
Node
p1369
(dp1370
g9
Nsg10
g76
sg38
I-1
sg39
I-1
sg40
Nsg41
g5
((lp1371
(iPrecedenceGraph
Node
p1372
(dp1373
g9
Nsg10
g46
sg38
I-1
sg39
I-1
sg40
Nsg41
g5
((lp1374
(iPrecedenceGraph
Node
p1375
(dp1376
g9
Nsg10
g88
sg38
I-1
sg39
I-1
sg40
Nsg41
g5
((lp1377
tp1378
Rp1379
sbatp1380
Rp1381
sbag1375
atp1382
Rp1383
sbatp1384
Rp1385
sg59
g5
((lp1386
g1372
a(iPrecedenceGraph
Node
p1387
(dp1388
g9
Nsg10
g64
sg38
I-1
sg39
I-1
sg40
Nsg41
g5
((lp1389
g1369
atp1390
Rp1391
sba(iPrecedenceGraph
Node
p1392
(dp1393
g9
Nsg10
g15
sg38
I-1
sg39
I-1
sg40
Nsg41
g5
((lp1394
g1372
ag1375
atp1395
Rp1396
sbag1369
ag1375
atp1397
Rp1398
sg99
g5
((lp1399
g1372
ag1375
atp1400
Rp1401
sg103
g5
((lp1402
tp1403
Rp1404
sg107
(lp1405
(lp1406
g88
aa(lp1407
g46
aa(lp1408
g76
aa(lp1409
g64
aa(lp1410
g15
aasg114
g5
((lp1411
g1387
ag1392
atp1412
Rp1413
sba(iPrecedenceGraph
PrecedenceGraph
p1414
(dp1415
g4
g5
((lp1416
(iPrecedenceGraph
Node
p1417
(dp1418
g9
Nsg10
g76
sg38
I-1
sg39
I-1
sg40
Nsg41
g5
((lp1419
(iPrecedenceGraph
Node
p1420
(dp1421
g9
Nsg10
g46
sg38
I-1
sg39
I-1
sg40
Nsg41
g5
((lp1422
tp1423
Rp1424
sbatp1425
Rp1426
sbatp1427
Rp1428
sg59
g5
((lp1429
g1420
a(iPrecedenceGraph
Node
p1430
(dp1431
g9
Nsg10
g64
sg38
I-1
sg39
I-1
sg40
Nsg41
g5
((lp1432
g1417
atp1433
Rp1434
sba(iPrecedenceGraph
Node
p1435
(dp1436
g9
Nsg10
g15
sg38
I-1
sg39
I-1
sg40
Nsg41
g5
((lp1437
tp1438
Rp1439
sbag1417
a(iPrecedenceGraph
Node
p1440
(dp1441
g9
Nsg10
g88
sg38
I-1
sg39
I-1
sg40
Nsg41
g5
((lp1442
tp1443
Rp1444
sbatp1445
Rp1446
sg99
g5
((lp1447
g1420
atp1448
Rp1449
sg103
g5
((lp1450
tp1451
Rp1452
sg107
(lp1453
(lp1454
g46
aa(lp1455
g76
aa(lp1456
g64
aa(lp1457
g15
aa(lp1458
g88
aasg114
g5
((lp1459
g1430
ag1435
ag1440
atp1460
Rp1461
sba(iPrecedenceGraph
PrecedenceGraph
p1462
(dp1463
g4
g5
((lp1464
(iPrecedenceGraph
Node
p1465
(dp1466
g9
Nsg10
g76
sg38
I-1
sg39
I-1
sg40
Nsg41
g5
((lp1467
(iPrecedenceGraph
Node
p1468
(dp1469
g9
Nsg10
g15
sg38
I-1
sg39
I-1
sg40
Nsg41
g5
((lp1470
(iPrecedenceGraph
Node
p1471
(dp1472
g9
Nsg10
g88
sg38
I-1
sg39
I-1
sg40
Nsg41
g5
((lp1473
tp1474
Rp1475
sbatp1476
Rp1477
sbag1471
atp1478
Rp1479
sbatp1480
Rp1481
sg59
g5
((lp1482
(iPrecedenceGraph
Node
p1483
(dp1484
g9
Nsg10
g46
sg38
I-1
sg39
I-1
sg40
Nsg41
g5
((lp1485
tp1486
Rp1487
sba(iPrecedenceGraph
Node
p1488
(dp1489
g9
Nsg10
g64
sg38
I-1
sg39
I-1
sg40
Nsg41
g5
((lp1490
g1465
atp1491
Rp1492
sbag1468
ag1465
ag1471
atp1493
Rp1494
sg99
g5
((lp1495
g1468
ag1471
atp1496
Rp1497
sg103
g5
((lp1498
tp1499
Rp1500
sg107
(lp1501
(lp1502
g46
aa(lp1503
g88
aa(lp1504
g15
aa(lp1505
g76
aa(lp1506
g64
aasg114
g5
((lp1507
g1483
ag1488
atp1508
Rp1509
sba(iPrecedenceGraph
PrecedenceGraph
p1510
(dp1511
g4
g5
((lp1512
(iPrecedenceGraph
Node
p1513
(dp1514
g9
Nsg10
g46
sg38
I-1
sg39
I-1
sg40
Nsg41
g5
((lp1515
tp1516
Rp1517
sba(iPrecedenceGraph
Node
p1518
(dp1519
g9
Nsg10
g88
sg38
I-1
sg39
I-1
sg40
Nsg41
g5
((lp1520
tp1521
Rp1522
sbatp1523
Rp1524
sg59
g5
((lp1525
g1513
a(iPrecedenceGraph
Node
p1526
(dp1527
g9
Nsg10
g64
sg38
I-1
sg39
I-1
sg40
Nsg41
g5
((lp1528
g1518
atp1529
Rp1530
sba(iPrecedenceGraph
Node
p1531
(dp1532
g9
Nsg10
g15
sg38
I-1
sg39
I-1
sg40
Nsg41
g5
((lp1533
tp1534
Rp1535
sba(iPrecedenceGraph
Node
p1536
(dp1537
g9
Nsg10
g76
sg38
I-1
sg39
I-1
sg40
Nsg41
g5
((lp1538
g1513
atp1539
Rp1540
sbag1518
atp1541
Rp1542
sg99
g5
((lp1543
tp1544
Rp1545
sg103
g5
((lp1546
tp1547
Rp1548
sg107
(lp1549
(lp1550
g46
aa(lp1551
g88
aa(lp1552
g64
aa(lp1553
g15
aa(lp1554
g76
aasg114
g5
((lp1555
g1526
ag1531
ag1536
atp1556
Rp1557
sba(iPrecedenceGraph
PrecedenceGraph
p1558
(dp1559
g4
g5
((lp1560
(iPrecedenceGraph
Node
p1561
(dp1562
g9
Nsg10
g76
sg38
I-1
sg39
I-1
sg40
Nsg41
g5
((lp1563
(iPrecedenceGraph
Node
p1564
(dp1565
g9
Nsg10
g46
sg38
I-1
sg39
I-1
sg40
Nsg41
g5
((lp1566
tp1567
Rp1568
sbatp1569
Rp1570
sbatp1571
Rp1572
sg59
g5
((lp1573
g1564
a(iPrecedenceGraph
Node
p1574
(dp1575
g9
Nsg10
g64
sg38
I-1
sg39
I-1
sg40
Nsg41
g5
((lp1576
g1561
atp1577
Rp1578
sba(iPrecedenceGraph
Node
p1579
(dp1580
g9
Nsg10
g15
sg38
I-1
sg39
I-1
sg40
Nsg41
g5
((lp1581
tp1582
Rp1583
sbag1561
a(iPrecedenceGraph
Node
p1584
(dp1585
g9
Nsg10
g88
sg38
I-1
sg39
I-1
sg40
Nsg41
g5
((lp1586
tp1587
Rp1588
sbatp1589
Rp1590
sg99
g5
((lp1591
g1564
atp1592
Rp1593
sg103
g5
((lp1594
tp1595
Rp1596
sg107
(lp1597
(lp1598
g46
aa(lp1599
g76
aa(lp1600
g64
aa(lp1601
g15
aa(lp1602
g88
aasg114
g5
((lp1603
g1574
ag1579
ag1584
atp1604
Rp1605
sba(iPrecedenceGraph
PrecedenceGraph
p1606
(dp1607
g4
g5
((lp1608
(iPrecedenceGraph
Node
p1609
(dp1610
g9
Nsg10
g46
sg38
I-1
sg39
I-1
sg40
Nsg41
g5
((lp1611
(iPrecedenceGraph
Node
p1612
(dp1613
g9
Nsg10
g88
sg38
I-1
sg39
I-1
sg40
Nsg41
g5
((lp1614
tp1615
Rp1616
sbatp1617
Rp1618
sbatp1619
Rp1620
sg59
g5
((lp1621
g1609
a(iPrecedenceGraph
Node
p1622
(dp1623
g9
Nsg10
g64
sg38
I-1
sg39
I-1
sg40
Nsg41
g5
((lp1624
g1609
ag1612
atp1625
Rp1626
sba(iPrecedenceGraph
Node
p1627
(dp1628
g9
Nsg10
g15
sg38
I-1
sg39
I-1
sg40
Nsg41
g5
((lp1629
g1612
atp1630
Rp1631
sba(iPrecedenceGraph
Node
p1632
(dp1633
g9
Nsg10
g76
sg38
I-1
sg39
I-1
sg40
Nsg41
g5
((lp1634
g1612
atp1635
Rp1636
sbag1612
atp1637
Rp1638
sg99
g5
((lp1639
g1612
atp1640
Rp1641
sg103
g5
((lp1642
tp1643
Rp1644
sg107
(lp1645
(lp1646
g88
aa(lp1647
g46
aa(lp1648
g64
aa(lp1649
g15
aa(lp1650
g76
aasg114
g5
((lp1651
g1622
ag1627
ag1632
atp1652
Rp1653
sba(iPrecedenceGraph
PrecedenceGraph
p1654
(dp1655
g4
g5
((lp1656
(iPrecedenceGraph
Node
p1657
(dp1658
g9
Nsg10
g46
sg38
I-1
sg39
I-1
sg40
Nsg41
g5
((lp1659
(iPrecedenceGraph
Node
p1660
(dp1661
g9
Nsg10
g88
sg38
I-1
sg39
I-1
sg40
Nsg41
g5
((lp1662
tp1663
Rp1664
sbatp1665
Rp1666
sba(iPrecedenceGraph
Node
p1667
(dp1668
g9
Nsg10
g15
sg38
I-1
sg39
I-1
sg40
Nsg41
g5
((lp1669
g1660
atp1670
Rp1671
sbatp1672
Rp1673
sg59
g5
((lp1674
g1657
a(iPrecedenceGraph
Node
p1675
(dp1676
g9
Nsg10
g64
sg38
I-1
sg39
I-1
sg40
Nsg41
g5
((lp1677
g1657
ag1667
ag1660
atp1678
Rp1679
sbag1667
a(iPrecedenceGraph
Node
p1680
(dp1681
g9
Nsg10
g76
sg38
I-1
sg39
I-1
sg40
Nsg41
g5
((lp1682
g1660
atp1683
Rp1684
sbag1660
atp1685
Rp1686
sg99
g5
((lp1687
g1660
atp1688
Rp1689
sg103
g5
((lp1690
tp1691
Rp1692
sg107
(lp1693
(lp1694
g88
aa(lp1695
g46
aa(lp1696
g15
aa(lp1697
g64
aa(lp1698
g76
aasg114
g5
((lp1699
g1675
ag1680
atp1700
Rp1701
sba(iPrecedenceGraph
PrecedenceGraph
p1702
(dp1703
g4
g5
((lp1704
(iPrecedenceGraph
Node
p1705
(dp1706
g9
Nsg10
g76
sg38
I-1
sg39
I-1
sg40
Nsg41
g5
((lp1707
(iPrecedenceGraph
Node
p1708
(dp1709
g9
Nsg10
g46
sg38
I-1
sg39
I-1
sg40
Nsg41
g5
((lp1710
tp1711
Rp1712
sbatp1713
Rp1714
sba(iPrecedenceGraph
Node
p1715
(dp1716
g9
Nsg10
g88
sg38
I-1
sg39
I-1
sg40
Nsg41
g5
((lp1717
tp1718
Rp1719
sbatp1720
Rp1721
sg59
g5
((lp1722
g1708
a(iPrecedenceGraph
Node
p1723
(dp1724
g9
Nsg10
g64
sg38
I-1
sg39
I-1
sg40
Nsg41
g5
((lp1725
g1705
atp1726
Rp1727
sba(iPrecedenceGraph
Node
p1728
(dp1729
g9
Nsg10
g15
sg38
I-1
sg39
I-1
sg40
Nsg41
g5
((lp1730
g1715
atp1731
Rp1732
sbag1705
ag1715
atp1733
Rp1734
sg99
g5
((lp1735
g1708
atp1736
Rp1737
sg103
g5
((lp1738
tp1739
Rp1740
sg107
(lp1741
(lp1742
g46
aa(lp1743
g76
aa(lp1744
g64
aa(lp1745
g88
aa(lp1746
g15
aasg114
g5
((lp1747
g1723
ag1728
atp1748
Rp1749
sba(iPrecedenceGraph
PrecedenceGraph
p1750
(dp1751
g4
g5
((lp1752
(iPrecedenceGraph
Node
p1753
(dp1754
g9
Nsg10
g15
sg38
I-1
sg39
I-1
sg40
Nsg41
g5
((lp1755
(iPrecedenceGraph
Node
p1756
(dp1757
g9
Nsg10
g88
sg38
I-1
sg39
I-1
sg40
Nsg41
g5
((lp1758
tp1759
Rp1760
sbatp1761
Rp1762
sbatp1763
Rp1764
sg59
g5
((lp1765
(iPrecedenceGraph
Node
p1766
(dp1767
g9
Nsg10
g46
sg38
I-1
sg39
I-1
sg40
Nsg41
g5
((lp1768
g1756
atp1769
Rp1770
sba(iPrecedenceGraph
Node
p1771
(dp1772
g9
Nsg10
g64
sg38
I-1
sg39
I-1
sg40
Nsg41
g5
((lp1773
g1756
atp1774
Rp1775
sbag1753
a(iPrecedenceGraph
Node
p1776
(dp1777
g9
Nsg10
g76
sg38
I-1
sg39
I-1
sg40
Nsg41
g5
((lp1778
g1753
ag1756
atp1779
Rp1780
sbag1756
atp1781
Rp1782
sg99
g5
((lp1783
g1756
atp1784
Rp1785
sg103
g5
((lp1786
tp1787
Rp1788
sg107
(lp1789
(lp1790
g88
aa(lp1791
g46
aa(lp1792
g64
aa(lp1793
g15
aa(lp1794
g76
aasg114
g5
((lp1795
g1766
ag1771
ag1776
atp1796
Rp1797
sba(iPrecedenceGraph
PrecedenceGraph
p1798
(dp1799
g4
g5
((lp1800
(iPrecedenceGraph
Node
p1801
(dp1802
g9
Nsg10
g46
sg38
I-1
sg39
I-1
sg40
Nsg41
g5
((lp1803
(iPrecedenceGraph
Node
p1804
(dp1805
g9
Nsg10
g88
sg38
I-1
sg39
I-1
sg40
Nsg41
g5
((lp1806
tp1807
Rp1808
sbatp1809
Rp1810
sba(iPrecedenceGraph
Node
p1811
(dp1812
g9
Nsg10
g15
sg38
I-1
sg39
I-1
sg40
Nsg41
g5
((lp1813
tp1814
Rp1815
sbatp1816
Rp1817
sg59
g5
((lp1818
g1801
a(iPrecedenceGraph
Node
p1819
(dp1820
g9
Nsg10
g64
sg38
I-1
sg39
I-1
sg40
Nsg41
g5
((lp1821
tp1822
Rp1823
sbag1811
a(iPrecedenceGraph
Node
p1824
(dp1825
g9
Nsg10
g76
sg38
I-1
sg39
I-1
sg40
Nsg41
g5
((lp1826
g1801
ag1811
ag1804
atp1827
Rp1828
sbag1804
atp1829
Rp1830
sg99
g5
((lp1831
g1804
atp1832
Rp1833
sg103
g5
((lp1834
tp1835
Rp1836
sg107
(lp1837
(lp1838
g88
aa(lp1839
g46
aa(lp1840
g64
aa(lp1841
g15
aa(lp1842
g76
aasg114
g5
((lp1843
g1819
ag1824
atp1844
Rp1845
sba(iPrecedenceGraph
PrecedenceGraph
p1846
(dp1847
g4
g5
((lp1848
(iPrecedenceGraph
Node
p1849
(dp1850
g9
Nsg10
g46
sg38
I-1
sg39
I-1
sg40
Nsg41
g5
((lp1851
(iPrecedenceGraph
Node
p1852
(dp1853
g9
Nsg10
g88
sg38
I-1
sg39
I-1
sg40
Nsg41
g5
((lp1854
tp1855
Rp1856
sbatp1857
Rp1858
sba(iPrecedenceGraph
Node
p1859
(dp1860
g9
Nsg10
g15
sg38
I-1
sg39
I-1
sg40
Nsg41
g5
((lp1861
tp1862
Rp1863
sbatp1864
Rp1865
sg59
g5
((lp1866
g1849
a(iPrecedenceGraph
Node
p1867
(dp1868
g9
Nsg10
g64
sg38
I-1
sg39
I-1
sg40
Nsg41
g5
((lp1869
g1849
atp1870
Rp1871
sbag1859
a(iPrecedenceGraph
Node
p1872
(dp1873
g9
Nsg10
g76
sg38
I-1
sg39
I-1
sg40
Nsg41
g5
((lp1874
g1849
ag1859
ag1852
atp1875
Rp1876
sbag1852
atp1877
Rp1878
sg99
g5
((lp1879
g1852
atp1880
Rp1881
sg103
g5
((lp1882
tp1883
Rp1884
sg107
(lp1885
(lp1886
g88
aa(lp1887
g46
aa(lp1888
g64
aa(lp1889
g15
aa(lp1890
g76
aasg114
g5
((lp1891
g1867
ag1872
atp1892
Rp1893
sba(iPrecedenceGraph
PrecedenceGraph
p1894
(dp1895
g4
g5
((lp1896
(iPrecedenceGraph
Node
p1897
(dp1898
g9
Nsg10
g46
sg38
I-1
sg39
I-1
sg40
Nsg41
g5
((lp1899
(iPrecedenceGraph
Node
p1900
(dp1901
g9
Nsg10
g88
sg38
I-1
sg39
I-1
sg40
Nsg41
g5
((lp1902
tp1903
Rp1904
sbatp1905
Rp1906
sba(iPrecedenceGraph
Node
p1907
(dp1908
g9
Nsg10
g15
sg38
I-1
sg39
I-1
sg40
Nsg41
g5
((lp1909
tp1910
Rp1911
sbatp1912
Rp1913
sg59
g5
((lp1914
g1897
a(iPrecedenceGraph
Node
p1915
(dp1916
g9
Nsg10
g64
sg38
I-1
sg39
I-1
sg40
Nsg41
g5
((lp1917
g1897
atp1918
Rp1919
sbag1907
a(iPrecedenceGraph
Node
p1920
(dp1921
g9
Nsg10
g76
sg38
I-1
sg39
I-1
sg40
Nsg41
g5
((lp1922
g1907
atp1923
Rp1924
sbag1900
atp1925
Rp1926
sg99
g5
((lp1927
g1900
atp1928
Rp1929
sg103
g5
((lp1930
tp1931
Rp1932
sg107
(lp1933
(lp1934
g88
aa(lp1935
g46
aa(lp1936
g64
aa(lp1937
g15
aa(lp1938
g76
aasg114
g5
((lp1939
g1915
ag1920
atp1940
Rp1941
sba(iPrecedenceGraph
PrecedenceGraph
p1942
(dp1943
g4
g5
((lp1944
(iPrecedenceGraph
Node
p1945
(dp1946
g9
Nsg10
g76
sg38
I-1
sg39
I-1
sg40
Nsg41
g5
((lp1947
(iPrecedenceGraph
Node
p1948
(dp1949
g9
Nsg10
g88
sg38
I-1
sg39
I-1
sg40
Nsg41
g5
((lp1950
tp1951
Rp1952
sbatp1953
Rp1954
sbatp1955
Rp1956
sg59
g5
((lp1957
(iPrecedenceGraph
Node
p1958
(dp1959
g9
Nsg10
g46
sg38
I-1
sg39
I-1
sg40
Nsg41
g5
((lp1960
tp1961
Rp1962
sba(iPrecedenceGraph
Node
p1963
(dp1964
g9
Nsg10
g64
sg38
I-1
sg39
I-1
sg40
Nsg41
g5
((lp1965
g1945
ag1948
atp1966
Rp1967
sba(iPrecedenceGraph
Node
p1968
(dp1969
g9
Nsg10
g15
sg38
I-1
sg39
I-1
sg40
Nsg41
g5
((lp1970
g1948
atp1971
Rp1972
sbag1945
ag1948
atp1973
Rp1974
sg99
g5
((lp1975
g1948
atp1976
Rp1977
sg103
g5
((lp1978
tp1979
Rp1980
sg107
(lp1981
(lp1982
g46
aa(lp1983
g88
aa(lp1984
g76
aa(lp1985
g64
aa(lp1986
g15
aasg114
g5
((lp1987
g1958
ag1963
ag1968
atp1988
Rp1989
sba(iPrecedenceGraph
PrecedenceGraph
p1990
(dp1991
g4
g5
((lp1992
(iPrecedenceGraph
Node
p1993
(dp1994
g9
Nsg10
g76
sg38
I-1
sg39
I-1
sg40
Nsg41
g5
((lp1995
(iPrecedenceGraph
Node
p1996
(dp1997
g9
Nsg10
g46
sg38
I-1
sg39
I-1
sg40
Nsg41
g5
((lp1998
(iPrecedenceGraph
Node
p1999
(dp2000
g9
Nsg10
g88
sg38
I-1
sg39
I-1
sg40
Nsg41
g5
((lp2001
tp2002
Rp2003
sbatp2004
Rp2005
sbatp2006
Rp2007
sbatp2008
Rp2009
sg59
g5
((lp2010
g1996
a(iPrecedenceGraph
Node
p2011
(dp2012
g9
Nsg10
g64
sg38
I-1
sg39
I-1
sg40
Nsg41
g5
((lp2013
g1993
atp2014
Rp2015
sba(iPrecedenceGraph
Node
p2016
(dp2017
g9
Nsg10
g15
sg38
I-1
sg39
I-1
sg40
Nsg41
g5
((lp2018
g1996
atp2019
Rp2020
sbag1993
ag1999
atp2021
Rp2022
sg99
g5
((lp2023
g1996
ag1999
atp2024
Rp2025
sg103
g5
((lp2026
tp2027
Rp2028
sg107
(lp2029
(lp2030
g88
aa(lp2031
g46
aa(lp2032
g76
aa(lp2033
g64
aa(lp2034
g15
aasg114
g5
((lp2035
g2011
ag2016
atp2036
Rp2037
sba(iPrecedenceGraph
PrecedenceGraph
p2038
(dp2039
g4
g5
((lp2040
(iPrecedenceGraph
Node
p2041
(dp2042
g9
Nsg10
g76
sg38
I-1
sg39
I-1
sg40
Nsg41
g5
((lp2043
(iPrecedenceGraph
Node
p2044
(dp2045
g9
Nsg10
g15
sg38
I-1
sg39
I-1
sg40
Nsg41
g5
((lp2046
(iPrecedenceGraph
Node
p2047
(dp2048
g9
Nsg10
g46
sg38
I-1
sg39
I-1
sg40
Nsg41
g5
((lp2049
(iPrecedenceGraph
Node
p2050
(dp2051
g9
Nsg10
g88
sg38
I-1
sg39
I-1
sg40
Nsg41
g5
((lp2052
tp2053
Rp2054
sbatp2055
Rp2056
sbag2050
atp2057
Rp2058
sbag2050
atp2059
Rp2060
sbatp2061
Rp2062
sg59
g5
((lp2063
g2047
a(iPrecedenceGraph
Node
p2064
(dp2065
g9
Nsg10
g64
sg38
I-1
sg39
I-1
sg40
Nsg41
g5
((lp2066
g2041
atp2067
Rp2068
sbag2044
ag2041
ag2050
atp2069
Rp2070
sg99
g5
((lp2071
g2047
ag2044
ag2050
atp2072
Rp2073
sg103
g5
((lp2074
tp2075
Rp2076
sg107
(lp2077
(lp2078
g88
aa(lp2079
g46
aa(lp2080
g15
aa(lp2081
g76
aa(lp2082
g64
aasg114
g5
((lp2083
g2064
atp2084
Rp2085
sba(iPrecedenceGraph
PrecedenceGraph
p2086
(dp2087
g4
g5
((lp2088
(iPrecedenceGraph
Node
p2089
(dp2090
g9
Nsg10
g46
sg38
I-1
sg39
I-1
sg40
Nsg41
g5
((lp2091
tp2092
Rp2093
sba(iPrecedenceGraph
Node
p2094
(dp2095
g9
Nsg10
g15
sg38
I-1
sg39
I-1
sg40
Nsg41
g5
((lp2096
(iPrecedenceGraph
Node
p2097
(dp2098
g9
Nsg10
g88
sg38
I-1
sg39
I-1
sg40
Nsg41
g5
((lp2099
tp2100
Rp2101
sbatp2102
Rp2103
sbatp2104
Rp2105
sg59
g5
((lp2106
g2089
a(iPrecedenceGraph
Node
p2107
(dp2108
g9
Nsg10
g64
sg38
I-1
sg39
I-1
sg40
Nsg41
g5
((lp2109
g2089
ag2097
atp2110
Rp2111
sbag2094
a(iPrecedenceGraph
Node
p2112
(dp2113
g9
Nsg10
g76
sg38
I-1
sg39
I-1
sg40
Nsg41
g5
((lp2114
g2089
ag2094
ag2097
atp2115
Rp2116
sbag2097
atp2117
Rp2118
sg99
g5
((lp2119
g2097
atp2120
Rp2121
sg103
g5
((lp2122
tp2123
Rp2124
sg107
(lp2125
(lp2126
g46
aa(lp2127
g88
aa(lp2128
g64
aa(lp2129
g15
aa(lp2130
g76
aasg114
g5
((lp2131
g2107
ag2112
atp2132
Rp2133
sba(iPrecedenceGraph
PrecedenceGraph
p2134
(dp2135
g4
g5
((lp2136
(iPrecedenceGraph
Node
p2137
(dp2138
g9
Nsg10
g46
sg38
I-1
sg39
I-1
sg40
Nsg41
g5
((lp2139
tp2140
Rp2141
sba(iPrecedenceGraph
Node
p2142
(dp2143
g9
Nsg10
g88
sg38
I-1
sg39
I-1
sg40
Nsg41
g5
((lp2144
tp2145
Rp2146
sbatp2147
Rp2148
sg59
g5
((lp2149
g2137
a(iPrecedenceGraph
Node
p2150
(dp2151
g9
Nsg10
g64
sg38
I-1
sg39
I-1
sg40
Nsg41
g5
((lp2152
g2137
atp2153
Rp2154
sba(iPrecedenceGraph
Node
p2155
(dp2156
g9
Nsg10
g15
sg38
I-1
sg39
I-1
sg40
Nsg41
g5
((lp2157
g2137
ag2142
atp2158
Rp2159
sba(iPrecedenceGraph
Node
p2160
(dp2161
g9
Nsg10
g76
sg38
I-1
sg39
I-1
sg40
Nsg41
g5
((lp2162
tp2163
Rp2164
sbag2142
atp2165
Rp2166
sg99
g5
((lp2167
tp2168
Rp2169
sg103
g5
((lp2170
tp2171
Rp2172
sg107
(lp2173
(lp2174
g46
aa(lp2175
g64
aa(lp2176
g88
aa(lp2177
g15
aa(lp2178
g76
aasg114
g5
((lp2179
g2150
ag2155
ag2160
atp2180
Rp2181
sba(iPrecedenceGraph
PrecedenceGraph
p2182
(dp2183
g4
g5
((lp2184
(iPrecedenceGraph
Node
p2185
(dp2186
g9
Nsg10
g76
sg38
I-1
sg39
I-1
sg40
Nsg41
g5
((lp2187
(iPrecedenceGraph
Node
p2188
(dp2189
g9
Nsg10
g46
sg38
I-1
sg39
I-1
sg40
Nsg41
g5
((lp2190
tp2191
Rp2192
sba(iPrecedenceGraph
Node
p2193
(dp2194
g9
Nsg10
g15
sg38
I-1
sg39
I-1
sg40
Nsg41
g5
((lp2195
g2188
atp2196
Rp2197
sbatp2198
Rp2199
sbatp2200
Rp2201
sg59
g5
((lp2202
g2188
a(iPrecedenceGraph
Node
p2203
(dp2204
g9
Nsg10
g64
sg38
I-1
sg39
I-1
sg40
Nsg41
g5
((lp2205
g2185
atp2206
Rp2207
sbag2193
ag2185
a(iPrecedenceGraph
Node
p2208
(dp2209
g9
Nsg10
g88
sg38
I-1
sg39
I-1
sg40
Nsg41
g5
((lp2210
tp2211
Rp2212
sbatp2213
Rp2214
sg99
g5
((lp2215
g2188
ag2193
atp2216
Rp2217
sg103
g5
((lp2218
tp2219
Rp2220
sg107
(lp2221
(lp2222
g46
aa(lp2223
g15
aa(lp2224
g76
aa(lp2225
g64
aa(lp2226
g88
aasg114
g5
((lp2227
g2203
ag2208
atp2228
Rp2229
sba(iPrecedenceGraph
PrecedenceGraph
p2230
(dp2231
g4
g5
((lp2232
(iPrecedenceGraph
Node
p2233
(dp2234
g9
Nsg10
g46
sg38
I-1
sg39
I-1
sg40
Nsg41
g5
((lp2235
(iPrecedenceGraph
Node
p2236
(dp2237
g9
Nsg10
g88
sg38
I-1
sg39
I-1
sg40
Nsg41
g5
((lp2238
tp2239
Rp2240
sbatp2241
Rp2242
sba(iPrecedenceGraph
Node
p2243
(dp2244
g9
Nsg10
g15
sg38
I-1
sg39
I-1
sg40
Nsg41
g5
((lp2245
tp2246
Rp2247
sbatp2248
Rp2249
sg59
g5
((lp2250
g2233
a(iPrecedenceGraph
Node
p2251
(dp2252
g9
Nsg10
g64
sg38
I-1
sg39
I-1
sg40
Nsg41
g5
((lp2253
g2233
atp2254
Rp2255
sbag2243
a(iPrecedenceGraph
Node
p2256
(dp2257
g9
Nsg10
g76
sg38
I-1
sg39
I-1
sg40
Nsg41
g5
((lp2258
g2243
ag2236
atp2259
Rp2260
sbag2236
atp2261
Rp2262
sg99
g5
((lp2263
g2236
atp2264
Rp2265
sg103
g5
((lp2266
tp2267
Rp2268
sg107
(lp2269
(lp2270
g88
aa(lp2271
g46
aa(lp2272
g64
aa(lp2273
g15
aa(lp2274
g76
aasg114
g5
((lp2275
g2251
ag2256
atp2276
Rp2277
sba(iPrecedenceGraph
PrecedenceGraph
p2278
(dp2279
g4
g5
((lp2280
(iPrecedenceGraph
Node
p2281
(dp2282
g9
Nsg10
g15
sg38
I-1
sg39
I-1
sg40
Nsg41
g5
((lp2283
(iPrecedenceGraph
Node
p2284
(dp2285
g9
Nsg10
g88
sg38
I-1
sg39
I-1
sg40
Nsg41
g5
((lp2286
tp2287
Rp2288
sbatp2289
Rp2290
sbatp2291
Rp2292
sg59
g5
((lp2293
(iPrecedenceGraph
Node
p2294
(dp2295
g9
Nsg10
g46
sg38
I-1
sg39
I-1
sg40
Nsg41
g5
((lp2296
g2284
atp2297
Rp2298
sba(iPrecedenceGraph
Node
p2299
(dp2300
g9
Nsg10
g64
sg38
I-1
sg39
I-1
sg40
Nsg41
g5
((lp2301
g2281
ag2284
atp2302
Rp2303
sbag2281
a(iPrecedenceGraph
Node
p2304
(dp2305
g9
Nsg10
g76
sg38
I-1
sg39
I-1
sg40
Nsg41
g5
((lp2306
g2281
atp2307
Rp2308
sbag2284
atp2309
Rp2310
sg99
g5
((lp2311
g2284
atp2312
Rp2313
sg103
g5
((lp2314
tp2315
Rp2316
sg107
(lp2317
(lp2318
g88
aa(lp2319
g46
aa(lp2320
g15
aa(lp2321
g64
aa(lp2322
g76
aasg114
g5
((lp2323
g2294
ag2299
ag2304
atp2324
Rp2325
sba(iPrecedenceGraph
PrecedenceGraph
p2326
(dp2327
g4
g5
((lp2328
(iPrecedenceGraph
Node
p2329
(dp2330
g9
Nsg10
g46
sg38
I-1
sg39
I-1
sg40
Nsg41
g5
((lp2331
tp2332
Rp2333
sba(iPrecedenceGraph
Node
p2334
(dp2335
g9
Nsg10
g15
sg38
I-1
sg39
I-1
sg40
Nsg41
g5
((lp2336
tp2337
Rp2338
sba(iPrecedenceGraph
Node
p2339
(dp2340
g9
Nsg10
g88
sg38
I-1
sg39
I-1
sg40
Nsg41
g5
((lp2341
tp2342
Rp2343
sbatp2344
Rp2345
sg59
g5
((lp2346
g2329
a(iPrecedenceGraph
Node
p2347
(dp2348
g9
Nsg10
g64
sg38
I-1
sg39
I-1
sg40
Nsg41
g5
((lp2349
g2329
atp2350
Rp2351
sbag2334
a(iPrecedenceGraph
Node
p2352
(dp2353
g9
Nsg10
g76
sg38
I-1
sg39
I-1
sg40
Nsg41
g5
((lp2354
g2329
ag2334
ag2339
atp2355
Rp2356
sbag2339
atp2357
Rp2358
sg99
g5
((lp2359
tp2360
Rp2361
sg103
g5
((lp2362
tp2363
Rp2364
sg107
(lp2365
(lp2366
g46
aa(lp2367
g64
aa(lp2368
g15
aa(lp2369
g88
aa(lp2370
g76
aasg114
g5
((lp2371
g2347
ag2352
atp2372
Rp2373
sba(iPrecedenceGraph
PrecedenceGraph
p2374
(dp2375
g4
g5
((lp2376
(iPrecedenceGraph
Node
p2377
(dp2378
g9
Nsg10
g15
sg38
I-1
sg39
I-1
sg40
Nsg41
g5
((lp2379
(iPrecedenceGraph
Node
p2380
(dp2381
g9
Nsg10
g46
sg38
I-1
sg39
I-1
sg40
Nsg41
g5
((lp2382
tp2383
Rp2384
sbatp2385
Rp2386
sbatp2387
Rp2388
sg59
g5
((lp2389
g2380
a(iPrecedenceGraph
Node
p2390
(dp2391
g9
Nsg10
g64
sg38
I-1
sg39
I-1
sg40
Nsg41
g5
((lp2392
g2380
ag2377
atp2393
Rp2394
sbag2377
a(iPrecedenceGraph
Node
p2395
(dp2396
g9
Nsg10
g76
sg38
I-1
sg39
I-1
sg40
Nsg41
g5
((lp2397
tp2398
Rp2399
sba(iPrecedenceGraph
Node
p2400
(dp2401
g9
Nsg10
g88
sg38
I-1
sg39
I-1
sg40
Nsg41
g5
((lp2402
tp2403
Rp2404
sbatp2405
Rp2406
sg99
g5
((lp2407
g2380
atp2408
Rp2409
sg103
g5
((lp2410
tp2411
Rp2412
sg107
(lp2413
(lp2414
g46
aa(lp2415
g15
aa(lp2416
g64
aa(lp2417
g76
aa(lp2418
g88
aasg114
g5
((lp2419
g2390
ag2395
ag2400
atp2420
Rp2421
sba(iPrecedenceGraph
PrecedenceGraph
p2422
(dp2423
g4
g5
((lp2424
(iPrecedenceGraph
Node
p2425
(dp2426
g9
Nsg10
g46
sg38
I-1
sg39
I-1
sg40
Nsg41
g5
((lp2427
(iPrecedenceGraph
Node
p2428
(dp2429
g9
Nsg10
g88
sg38
I-1
sg39
I-1
sg40
Nsg41
g5
((lp2430
tp2431
Rp2432
sbatp2433
Rp2434
sba(iPrecedenceGraph
Node
p2435
(dp2436
g9
Nsg10
g15
sg38
I-1
sg39
I-1
sg40
Nsg41
g5
((lp2437
g2428
atp2438
Rp2439
sbatp2440
Rp2441
sg59
g5
((lp2442
g2425
a(iPrecedenceGraph
Node
p2443
(dp2444
g9
Nsg10
g64
sg38
I-1
sg39
I-1
sg40
Nsg41
g5
((lp2445
g2435
ag2428
atp2446
Rp2447
sbag2435
a(iPrecedenceGraph
Node
p2448
(dp2449
g9
Nsg10
g76
sg38
I-1
sg39
I-1
sg40
Nsg41
g5
((lp2450
g2425
atp2451
Rp2452
sbag2428
atp2453
Rp2454
sg99
g5
((lp2455
g2428
atp2456
Rp2457
sg103
g5
((lp2458
tp2459
Rp2460
sg107
(lp2461
(lp2462
g88
aa(lp2463
g46
aa(lp2464
g15
aa(lp2465
g64
aa(lp2466
g76
aasg114
g5
((lp2467
g2443
ag2448
atp2468
Rp2469
sbas.