(dp0
I1
(lp1
(iRobot
Robot
p2
(dp3
S'_best_task_pos'
p4
(dp5
sS'_bid_alpha'
p6
F0.5
sS'_winner_received'
p7
I01
sS'name'
p8
S'robot1'
p9
sS'_auc_ack_pub'
p10
NsS'_tasks_preconditions'
p11
(dp12
sS'stn'
p13
ccopy_reg
_reconstructor
p14
(cSTN
STN
p15
c__builtin__
object
p16
Ntp17
Rp18
(dp19
S'_digraph'
p20
g14
(cnetworkx.classes.digraph
DiGraph
p21
g16
Ntp22
Rp23
(dp24
S'adjlist_inner_dict_factory'
p25
c__builtin__
dict
p26
sS'node_dict_factory'
p27
g26
sS'edge_attr_dict_factory'
p28
g26
sS'_node'
p29
(dp30
S'zero'
p31
(dp32
S'index'
p33
I-1
sS'task'
p34
g14
(cTask
Task
p35
g16
Ntp36
Rp37
(dp38
S'est'
p39
I0
sS'finish_time'
p40
I0
sS'start_time'
p41
I0
sS'eft'
p42
I-1
sS'lft'
p43
I0
sS'lst'
p44
I1
sS'location'
p45
(I36
I5
tp46
sS'duration'
p47
I0
sS'type'
p48
I0
sS'id'
p49
I-1
sbsssS'graph'
p50
(dp51
sS'_pred'
p52
(dp53
g31
(dp54
ssS'_succ'
p55
(dp56
g31
(dp57
ssS'_adj'
p58
g56
sS'adjlist_outer_dict_factory'
p59
g26
sbsS'task_count'
p60
I0
sS'total_travel_time'
p61
I0
sS'_robot_speed'
p62
I1
sbsS'_scheduled_tasks_pub'
p63
NsS'_capability'
p64
c__builtin__
set
p65
((lp66
I1
aI2
atp67
Rp68
sS'_bid_pub'
p69
NsS'_t_auc'
p70
(lp71
sS'_completed_auctions'
p72
(lp73
sS'init_pos'
p74
(I36
I5
tp75
sS'_bit_schedule'
p76
(iBitSchedule
BitSchedule
p77
(dp78
S'_logger'
p79
(iLogger
Logger
p80
(dp81
S'level'
p82
I-1
sbsS'_tasks'
p83
(lp84
g14
(g35
g16
Ntp85
Rp86
(dp87
g39
I0
sg40
I0
sg41
I0
sg42
I-1
sg43
I0
sg44
I1
sg45
(I36
I5
tp88
sg47
I0
sg48
I0
sg49
I-1
sbasg62
I1
sS'_bit_arr'
p89
cbitarray
bitarray
p90
(S'\x00'
p91
S'big'
p92
tp93
Rp94
(dp95
bsbsS'logger'
p96
g80
sS'speed'
p97
I1
sg49
I1
sS'_cost_alpha'
p98
F0.5
sbas.